(dp0
S'Tmin'
p1
I220
sS'VPd'
p2
F-2.5093999999999999
sS'Tmax'
p3
F507.5
sS'Tc'
p4
F507.5
sS'Pc'
p5
F30.100000000000001
sS'VPa'
p6
F-7.4676999999999998
sS'VPc'
p7
F-3.2822
sS'VPb'
p8
F1.4420999999999999
sS'Method'
p9
I1
s.