(dp0
S'Tmin'
p1
F293.0
sS'VPd'
p2
F-2.4548999999999999
sS'Tmax'
p3
F553.5
sS'Tc'
p4
F553.5
sS'Pc'
p5
F40.700000000000003
sS'VPa'
p6
F-6.9600999999999997
sS'VPc'
p7
F-2.7568000000000001
sS'VPb'
p8
F1.3132999999999999
sS'Method'
p9
I1
s.