(dp0
S'Tmin'
p1
I240
sS'VPd'
p2
F-3.2023999999999999
sS'Tmax'
p3
F540.29999999999995
sS'Tc'
p4
F540.29999999999995
sS'Pc'
p5
F27.399999999999999
sS'VPa'
p6
F-7.6746999999999996
sS'VPc'
p7
F-3.5362
sS'VPb'
p8
F1.3707
sS'Method'
p9
I1
s.