(dp0
S'Tmin'
p1
I288
sS'VPd'
p2
F1.5448
sS'Tmax'
p3
F512.60000000000002
sS'Tc'
p4
F512.60000000000002
sS'Pc'
p5
F80.900000000000006
sS'VPa'
p6
F-8.548
sS'VPc'
p7
F-3.1084999999999998
sS'VPb'
p8
F0.76980000000000004
sS'Method'
p9
I1
s.