(dp0
S'Tmin'
p1
I195
sS'VPd'
p2
F-1.0246
sS'Tmax'
p3
F469.80000000000001
sS'Tc'
p4
F469.69999999999999
sS'Pc'
p5
F33.700000000000003
sS'VPa'
p6
F-7.2893999999999997
sS'VPc'
p7
F-3.0836999999999999
sS'VPb'
p8
F1.5367999999999999
sS'Method'
p9
I1
s.