(dp0
S'Tmin'
p1
I380
sS'VPd'
p2
F-1.3689
sS'Tmax'
p3
F694.20000000000005
sS'Tc'
p4
F694.20000000000005
sS'Pc'
p5
F61.299999999999997
sS'VPa'
p6
F-8.7554999999999996
sS'VPc'
p7
F-6.3159999999999998
sS'VPb'
p8
F2.9264999999999999
sS'Method'
p9
I1
s.